target datalayout = "e-m:e-p270:32:32-p271:32:32-p272:64:64-i64:64-i128:128-f80:128-n8:16:32:64-S128"
target triple = "x86_64-pc-linux-gnu"

%struct.strbuf = type { i64, i64, ptr }

@__const.fn_exec_fl.buf_payload = private unnamed_addr constant %struct.strbuf { i64 0, i64 0, ptr @strbuf_slopbuf }, align 8
@.str.24 = private unnamed_addr constant [10 x i8] c"exec[%d] \00", align 1

; Function Attrs: inlinehint nounwind uwtable
define internal i64 @strbuf_avail(ptr noundef %0) #4 {
  %2 = alloca ptr, align 8
  store ptr %0, ptr %2, align 8, !tbaa !74
  %3 = load ptr, ptr %2, align 8, !tbaa !74
  %4 = getelementptr inbounds nuw %struct.strbuf, ptr %3, i32 0, i32 0
  %5 = load i64, ptr %4, align 8, !tbaa !79
  %6 = icmp ne i64 %5, 0
  br i1 %6, label %7, label %16

7:                                                ; preds = %1
  %8 = load ptr, ptr %2, align 8, !tbaa !74
  %9 = getelementptr inbounds nuw %struct.strbuf, ptr %8, i32 0, i32 0
  %10 = load i64, ptr %9, align 8, !tbaa !79
  %11 = load ptr, ptr %2, align 8, !tbaa !74
  %12 = getelementptr inbounds nuw %struct.strbuf, ptr %11, i32 0, i32 1
  %13 = load i64, ptr %12, align 8, !tbaa !76
  %14 = sub i64 %10, %13
  %15 = sub i64 %14, 1
  br label %17

16:                                               ; preds = %1
  br label %17

17:                                               ; preds = %16, %7
  %18 = phi i64 [ %15, %7 ], [ 0, %16 ]
  ret i64 %18
}

; Function Attrs: inlinehint nounwind uwtable
define internal void @strbuf_addch(ptr noundef %0, i32 noundef %1) #4 {
  %3 = alloca ptr, align 8
  %4 = alloca i32, align 4
  store ptr %0, ptr %3, align 8, !tbaa !74
  store i32 %1, ptr %4, align 4, !tbaa !4
  %5 = load ptr, ptr %3, align 8, !tbaa !74
  %6 = call i64 @strbuf_avail(ptr noundef %5)
  %7 = icmp ne i64 %6, 0
  br i1 %7, label %10, label %8

8:                                                ; preds = %2
  %9 = load ptr, ptr %3, align 8, !tbaa !74
  call void @strbuf_grow(ptr noundef %9, i64 noundef 1)
  br label %10

10:                                               ; preds = %8, %2
  %11 = load i32, ptr %4, align 4, !tbaa !4
  %12 = trunc i32 %11 to i8
  %13 = load ptr, ptr %3, align 8, !tbaa !74
  %14 = getelementptr inbounds nuw %struct.strbuf, ptr %13, i32 0, i32 2
  %15 = load ptr, ptr %14, align 8, !tbaa !80
  %16 = load ptr, ptr %3, align 8, !tbaa !74
  %17 = getelementptr inbounds nuw %struct.strbuf, ptr %16, i32 0, i32 1
  %18 = load i64, ptr %17, align 8, !tbaa !76
  %19 = add i64 %18, 1
  store i64 %19, ptr %17, align 8, !tbaa !76
  %20 = getelementptr inbounds nuw i8, ptr %15, i64 %18
  store i8 %12, ptr %20, align 1, !tbaa !11
  %21 = load ptr, ptr %3, align 8, !tbaa !74
  %22 = getelementptr inbounds nuw %struct.strbuf, ptr %21, i32 0, i32 2
  %23 = load ptr, ptr %22, align 8, !tbaa !80
  %24 = load ptr, ptr %3, align 8, !tbaa !74
  %25 = getelementptr inbounds nuw %struct.strbuf, ptr %24, i32 0, i32 1
  %26 = load i64, ptr %25, align 8, !tbaa !76
  %27 = getelementptr inbounds nuw i8, ptr %23, i64 %26
  store i8 0, ptr %27, align 1, !tbaa !11
  ret void
}

; Function Attrs: inlinehint nounwind uwtable
define internal void @strbuf_addstr(ptr noundef %0, ptr noundef %1) #4 {
  %3 = alloca ptr, align 8
  %4 = alloca ptr, align 8
  store ptr %0, ptr %3, align 8, !tbaa !74
  store ptr %1, ptr %4, align 8, !tbaa !8
  %5 = load ptr, ptr %3, align 8, !tbaa !74
  %6 = load ptr, ptr %4, align 8, !tbaa !8
  %7 = load ptr, ptr %4, align 8, !tbaa !8
  %8 = call i64 @strlen(ptr noundef %7) #11
  call void @strbuf_add(ptr noundef %5, ptr noundef %6, i64 noundef %8)
  ret void
}

; Function Attrs: nounwind uwtable
define internal void @fn_exec_fl(ptr noundef %0, i32 noundef %1, i64 noundef %2, i32 noundef %3, ptr noundef %4, ptr noundef %5) #0 {
  %7 = alloca ptr, align 8
  %8 = alloca i32, align 4
  %9 = alloca i64, align 8
  %10 = alloca i32, align 4
  %11 = alloca ptr, align 8
  %12 = alloca ptr, align 8
  %13 = alloca %struct.strbuf, align 8
  store ptr %0, ptr %7, align 8, !tbaa !8
  store i32 %1, ptr %8, align 4, !tbaa !4
  store i64 %2, ptr %9, align 8, !tbaa !12
  store i32 %3, ptr %10, align 4, !tbaa !4
  store ptr %4, ptr %11, align 8, !tbaa !8
  store ptr %5, ptr %12, align 8, !tbaa !14
  call void @llvm.lifetime.start.p0(i64 24, ptr %13) #9
  call void @llvm.memcpy.p0.p0.i64(ptr align 8 %13, ptr align 8 @__const.fn_exec_fl.buf_payload, i64 24, i1 false)
  %14 = load i32, ptr %10, align 4, !tbaa !4
  call void (ptr, ptr, ...) @strbuf_addf(ptr noundef %13, ptr noundef @.str.24, i32 noundef %14)
  %15 = load ptr, ptr %11, align 8, !tbaa !8
  %16 = icmp ne ptr %15, null
  br i1 %16, label %17, label %19

17:                                               ; preds = %6
  %18 = load ptr, ptr %11, align 8, !tbaa !8
  call void @strbuf_addstr(ptr noundef %13, ptr noundef %18)
  call void @strbuf_addch(ptr noundef %13, i32 noundef 32)
  br label %19

19:                                               ; preds = %17, %6
  %20 = load ptr, ptr %12, align 8, !tbaa !14
  call void @sq_append_quote_argv_pretty(ptr noundef %13, ptr noundef %20)
  %21 = load ptr, ptr %7, align 8, !tbaa !8
  %22 = load i32, ptr %8, align 4, !tbaa !4
  call void @normal_io_write_fl(ptr noundef %21, i32 noundef %22, ptr noundef %13)
  call void @strbuf_release(ptr noundef %13)
  call void @llvm.lifetime.end.p0(i64 24, ptr %13) #9
  ret void
}