; Function Attrs: nounwind uwtable
define internal void @fn_exec_fl(ptr noundef %0, i32 noundef %1, i64 %2, i32 noundef %3, ptr noundef %4, ptr noundef %5) #0 {
  %7 = alloca %struct.strbuf, align 8
  call void @llvm.lifetime.start.p0(i64 24, ptr nonnull %7) #7
  call void @llvm.memcpy.p0.p0.i64(ptr noundef nonnull align 8 dereferenceable(24) %7, ptr noundef nonnull align 8 dereferenceable(24) @__const.fn_counter.buf_payload, i64 24, i1 false)
  call void (ptr, ptr, ...) @strbuf_addf(ptr noundef nonnull %7, ptr noundef nonnull @.str.24, i32 noundef %3) #7
  %.not = icmp eq ptr %4, null
  br i1 %.not, label %21, label %8

8:                                                ; preds = %6
  %9 = call i64 @strlen(ptr noundef nonnull dereferenceable(1) %4) #8
  call void @strbuf_add(ptr noundef nonnull %7, ptr noundef nonnull %4, i64 noundef %9) #7
  %10 = load i64, ptr %7, align 8, !tbaa !9
  %.not.i.i = icmp eq i64 %10, 0
  br i1 %.not.i.i, label %strbuf_avail.exit.thread.i, label %strbuf_avail.exit.i

strbuf_avail.exit.i:                              ; preds = %8
  %11 = getelementptr inbounds nuw i8, ptr %7, i64 8
  %12 = load i64, ptr %11, align 8, !tbaa !14
  %.neg.i = add i64 %12, 1
  %.not.i = icmp eq i64 %10, %.neg.i
  br i1 %.not.i, label %strbuf_avail.exit.thread.i, label %strbuf_addch.exit

strbuf_avail.exit.thread.i:                       ; preds = %strbuf_avail.exit.i, %8
  call void @strbuf_grow(ptr noundef nonnull %7, i64 noundef 1) #7
  %.phi.trans.insert.i = getelementptr inbounds nuw i8, ptr %7, i64 8
  %.pre.i = load i64, ptr %.phi.trans.insert.i, align 8, !tbaa !14
  %.pre7.i = add i64 %.pre.i, 1
  br label %strbuf_addch.exit

strbuf_addch.exit:                                ; preds = %strbuf_avail.exit.i, %strbuf_avail.exit.thread.i
  %.pre-phi.i = phi i64 [ %.pre7.i, %strbuf_avail.exit.thread.i ], [ %.neg.i, %strbuf_avail.exit.i ]
  %13 = phi i64 [ %.pre.i, %strbuf_avail.exit.thread.i ], [ %12, %strbuf_avail.exit.i ]
  %14 = getelementptr inbounds nuw i8, ptr %7, i64 16
  %15 = load ptr, ptr %14, align 8, !tbaa !15
  %16 = getelementptr inbounds nuw i8, ptr %7, i64 8
  store i64 %.pre-phi.i, ptr %16, align 8, !tbaa !14
  %17 = getelementptr inbounds nuw i8, ptr %15, i64 %13
  store i8 32, ptr %17, align 1, !tbaa !4
  %18 = load ptr, ptr %14, align 8, !tbaa !15
  %19 = load i64, ptr %16, align 8, !tbaa !14
  %20 = getelementptr inbounds nuw i8, ptr %18, i64 %19
  store i8 0, ptr %20, align 1, !tbaa !4
  br label %21

21:                                               ; preds = %strbuf_addch.exit, %6
  call void @sq_append_quote_argv_pretty(ptr noundef nonnull %7, ptr noundef %5) #7
  call fastcc void @normal_io_write_fl(ptr noundef %0, i32 noundef %1, ptr noundef %7)
  call void @strbuf_release(ptr noundef nonnull %7) #7
  call void @llvm.lifetime.end.p0(i64 24, ptr nonnull %7) #7
  ret void
}